target datalayout = "e-m:e-p270:32:32-p271:32:32-p272:64:64-i64:64-i128:128-f80:128-n8:16:32:64-S128"
target triple = "x86_64-pc-linux-gnu"

; Function Attrs: nounwind uwtable
define void @dt_iop_image_add_const(ptr noundef %0, float noundef %1, i64 noundef %2, i64 noundef %3, i64 noundef %4) #0 {
  %6 = alloca ptr, align 8
  %7 = alloca float, align 4
  %8 = alloca i64, align 8
  %9 = alloca i64, align 8
  %10 = alloca i64, align 8
  %11 = alloca i64, align 8
  %12 = alloca i64, align 8
  store ptr %0, ptr %6, align 8, !tbaa !17
  store float %1, ptr %7, align 4, !tbaa !29
  store i64 %2, ptr %8, align 8, !tbaa !21
  store i64 %3, ptr %9, align 8, !tbaa !21
  store i64 %4, ptr %10, align 8, !tbaa !21
  call void @llvm.lifetime.start.p0(i64 8, ptr %11) #9
  %13 = load i64, ptr %8, align 8, !tbaa !21
  %14 = load i64, ptr %9, align 8, !tbaa !21
  %15 = mul i64 %13, %14
  %16 = load i64, ptr %10, align 8, !tbaa !21
  %17 = mul i64 %15, %16
  store i64 %17, ptr %11, align 8, !tbaa !21
  call void @llvm.lifetime.start.p0(i64 8, ptr %12) #9
  store i64 0, ptr %12, align 8, !tbaa !21
  br label %18

18:                                               ; preds = %30, %5
  %19 = load i64, ptr %12, align 8, !tbaa !21
  %20 = load i64, ptr %11, align 8, !tbaa !21
  %21 = icmp ult i64 %19, %20
  br i1 %21, label %23, label %22

22:                                               ; preds = %18
  call void @llvm.lifetime.end.p0(i64 8, ptr %12) #9
  br label %33

23:                                               ; preds = %18
  %24 = load float, ptr %7, align 4, !tbaa !29
  %25 = load ptr, ptr %6, align 8, !tbaa !17
  %26 = load i64, ptr %12, align 8, !tbaa !21
  %27 = getelementptr inbounds nuw float, ptr %25, i64 %26
  %28 = load float, ptr %27, align 4, !tbaa !29
  %29 = fadd reassoc nsz arcp contract afn float %28, %24
  store float %29, ptr %27, align 4, !tbaa !29
  br label %30

30:                                               ; preds = %23
  %31 = load i64, ptr %12, align 8, !tbaa !21
  %32 = add i64 %31, 1
  store i64 %32, ptr %12, align 8, !tbaa !21
  br label %18

33:                                               ; preds = %22
  call void @llvm.lifetime.end.p0(i64 8, ptr %11) #9
  ret void
}